target datalayout = "e-m:e-p270:32:32-p271:32:32-p272:64:64-i64:64-i128:128-f80:128-n8:16:32:64-S128"
target triple = "x86_64-pc-linux-gnu"

; Function Attrs: nounwind uwtable
define internal void @subtract_average_c(ptr noundef %0, ptr noundef %1, i32 noundef %2, i32 noundef %3, i32 noundef %4, i32 noundef %5) #0 {
  %7 = alloca ptr, align 8
  %8 = alloca ptr, align 8
  %9 = alloca i32, align 4
  %10 = alloca i32, align 4
  %11 = alloca i32, align 4
  %12 = alloca i32, align 4
  %13 = alloca i32, align 4
  %14 = alloca ptr, align 8
  %15 = alloca i32, align 4
  %16 = alloca i32, align 4
  %17 = alloca i32, align 4
  %18 = alloca i32, align 4
  %19 = alloca i32, align 4
  store ptr %0, ptr %7, align 8
  store ptr %1, ptr %8, align 8
  store i32 %2, ptr %9, align 4
  store i32 %3, ptr %10, align 4
  store i32 %4, ptr %11, align 4
  store i32 %5, ptr %12, align 4
  %20 = load i32, ptr %11, align 4
  store i32 %20, ptr %13, align 4
  %21 = load ptr, ptr %7, align 8
  store ptr %21, ptr %14, align 8
  store i32 0, ptr %15, align 4
  br label %22

22:                                               ; preds = %46, %6
  %23 = load i32, ptr %15, align 4
  %24 = load i32, ptr %10, align 4
  %25 = icmp slt i32 %23, %24
  br i1 %25, label %26, label %49

26:                                               ; preds = %22
  store i32 0, ptr %16, align 4
  br label %27

27:                                               ; preds = %40, %26
  %28 = load i32, ptr %16, align 4
  %29 = load i32, ptr %9, align 4
  %30 = icmp slt i32 %28, %29
  br i1 %30, label %31, label %43

31:                                               ; preds = %27
  %32 = load ptr, ptr %14, align 8
  %33 = load i32, ptr %16, align 4
  %34 = sext i32 %33 to i64
  %35 = getelementptr inbounds i16, ptr %32, i64 %34
  %36 = load i16, ptr %35, align 2
  %37 = zext i16 %36 to i32
  %38 = load i32, ptr %13, align 4
  %39 = add nsw i32 %38, %37
  store i32 %39, ptr %13, align 4
  br label %40

40:                                               ; preds = %31
  %41 = load i32, ptr %16, align 4
  %42 = add nsw i32 %41, 1
  store i32 %42, ptr %16, align 4
  br label %27, !llvm.loop !7

43:                                               ; preds = %27
  %44 = load ptr, ptr %14, align 8
  %45 = getelementptr inbounds i16, ptr %44, i64 32
  store ptr %45, ptr %14, align 8
  br label %46

46:                                               ; preds = %43
  %47 = load i32, ptr %15, align 4
  %48 = add nsw i32 %47, 1
  store i32 %48, ptr %15, align 4
  br label %22, !llvm.loop !8

49:                                               ; preds = %22
  %50 = load i32, ptr %13, align 4
  %51 = load i32, ptr %12, align 4
  %52 = ashr i32 %50, %51
  store i32 %52, ptr %17, align 4
  store i32 0, ptr %18, align 4
  br label %53

53:                                               ; preds = %84, %49
  %54 = load i32, ptr %18, align 4
  %55 = load i32, ptr %10, align 4
  %56 = icmp slt i32 %54, %55
  br i1 %56, label %57, label %87

57:                                               ; preds = %53
  store i32 0, ptr %19, align 4
  br label %58

58:                                               ; preds = %76, %57
  %59 = load i32, ptr %19, align 4
  %60 = load i32, ptr %9, align 4
  %61 = icmp slt i32 %59, %60
  br i1 %61, label %62, label %79

62:                                               ; preds = %58
  %63 = load ptr, ptr %7, align 8
  %64 = load i32, ptr %19, align 4
  %65 = sext i32 %64 to i64
  %66 = getelementptr inbounds i16, ptr %63, i64 %65
  %67 = load i16, ptr %66, align 2
  %68 = zext i16 %67 to i32
  %69 = load i32, ptr %17, align 4
  %70 = sub nsw i32 %68, %69
  %71 = trunc i32 %70 to i16
  %72 = load ptr, ptr %8, align 8
  %73 = load i32, ptr %19, align 4
  %74 = sext i32 %73 to i64
  %75 = getelementptr inbounds i16, ptr %72, i64 %74
  store i16 %71, ptr %75, align 2
  br label %76

76:                                               ; preds = %62
  %77 = load i32, ptr %19, align 4
  %78 = add nsw i32 %77, 1
  store i32 %78, ptr %19, align 4
  br label %58, !llvm.loop !9

79:                                               ; preds = %58
  %80 = load ptr, ptr %7, align 8
  %81 = getelementptr inbounds i16, ptr %80, i64 32
  store ptr %81, ptr %7, align 8
  %82 = load ptr, ptr %8, align 8
  %83 = getelementptr inbounds i16, ptr %82, i64 32
  store ptr %83, ptr %8, align 8
  br label %84

84:                                               ; preds = %79
  %85 = load i32, ptr %18, align 4
  %86 = add nsw i32 %85, 1
  store i32 %86, ptr %18, align 4
  br label %53, !llvm.loop !10

87:                                               ; preds = %53
  ret void
}

; Function Attrs: nounwind uwtable
define hidden void @cfl_subtract_average_16x16_c(ptr noundef %0, ptr noundef %1) #0 {
  %3 = alloca ptr, align 8
  %4 = alloca ptr, align 8
  store ptr %0, ptr %3, align 8
  store ptr %1, ptr %4, align 8
  %5 = load ptr, ptr %3, align 8
  %6 = load ptr, ptr %4, align 8
  call void @subtract_average_c(ptr noundef %5, ptr noundef %6, i32 noundef 16, i32 noundef 16, i32 noundef 128, i32 noundef 8)
  ret void
}